; Function Attrs: mustprogress uwtable
define internal void @_ZN7rocksdb12_GLOBAL__N_112SimCacheImpl16StartAsyncLookupERNS_5Cache17AsyncLookupHandleE(ptr noundef nonnull align 8 dereferenceable(216) %0, ptr noundef nonnull align 8 dereferenceable(74) %1) unnamed_addr #4 align 2 {
  %3 = getelementptr inbounds nuw i8, ptr %1, i64 40
  %4 = load ptr, ptr %3, align 8, !tbaa !172
  tail call fastcc void @_ZN7rocksdb12_GLOBAL__N_112SimCacheImpl12HandleLookupERKNS_5SliceEPNS_10StatisticsE(ptr noundef nonnull align 8 dereferenceable(216) %0, ptr noundef nonnull align 8 dereferenceable(16) %1, ptr noundef %4)
  %5 = getelementptr inbounds nuw i8, ptr %0, i64 80
  %6 = load ptr, ptr %5, align 8, !tbaa !45
  %.not = icmp eq ptr %6, null
  br i1 %.not, label %11, label %7

7:                                                ; preds = %2
  %8 = load ptr, ptr %6, align 8, !tbaa !32
  %9 = getelementptr inbounds nuw i8, ptr %8, i64 376
  %10 = load ptr, ptr %9, align 8
  tail call void %10(ptr noundef nonnull align 8 dereferenceable(80) %6, ptr noundef nonnull align 8 dereferenceable(74) %1)
  br label %11

11:                                               ; preds = %7, %2
  ret void
}